target datalayout = "e-m:e-p270:32:32-p271:32:32-p272:64:64-i64:64-i128:128-f80:128-n8:16:32:64-S128"
target triple = "x86_64-unknown-linux-gnu"

%class.small_object_allocator = type { [32 x ptr], [32 x ptr], i64 }

; Function Attrs: mustprogress nounwind uwtable
define hidden noundef i64 @_ZNK22small_object_allocator17get_num_free_objsEv(ptr noundef nonnull align 8 dereferenceable(520) %this) #4 align 2 {
entry:
  %this.addr = alloca ptr, align 8
  %r = alloca i64, align 8
  %slot_id = alloca i32, align 4
  %ptr = alloca ptr, align 8
  store ptr %this, ptr %this.addr, align 8
  %this1 = load ptr, ptr %this.addr, align 8
  store i64 0, ptr %r, align 8
  store i32 0, ptr %slot_id, align 4
  br label %for.cond

for.cond:                                         ; preds = %for.inc, %entry
  %0 = load i32, ptr %slot_id, align 4
  %cmp = icmp ult i32 %0, 32
  br i1 %cmp, label %for.body, label %for.end

for.body:                                         ; preds = %for.cond
  %m_free_list = getelementptr inbounds %class.small_object_allocator, ptr %this1, i32 0, i32 1
  %1 = load i32, ptr %slot_id, align 4
  %idxprom = zext i32 %1 to i64
  %arrayidx = getelementptr inbounds [32 x ptr], ptr %m_free_list, i64 0, i64 %idxprom
  %2 = load ptr, ptr %arrayidx, align 8
  store ptr %2, ptr %ptr, align 8
  br label %while.cond

while.cond:                                       ; preds = %while.body, %for.body
  %3 = load ptr, ptr %ptr, align 8
  %cmp2 = icmp ne ptr %3, null
  br i1 %cmp2, label %while.body, label %while.end

while.body:                                       ; preds = %while.cond
  %4 = load i64, ptr %r, align 8
  %inc = add i64 %4, 1
  store i64 %inc, ptr %r, align 8
  %5 = load ptr, ptr %ptr, align 8
  %6 = load ptr, ptr %5, align 8
  store ptr %6, ptr %ptr, align 8
  br label %while.cond, !llvm.loop !12

while.end:                                        ; preds = %while.cond
  br label %for.inc

for.inc:                                          ; preds = %while.end
  %7 = load i32, ptr %slot_id, align 4
  %inc3 = add i32 %7, 1
  store i32 %inc3, ptr %slot_id, align 4
  br label %for.cond, !llvm.loop !13

for.end:                                          ; preds = %for.cond
  %8 = load i64, ptr %r, align 8
  ret i64 %8
}